target datalayout = "e-m:e-p270:32:32-p271:32:32-p272:64:64-i64:64-i128:128-f80:128-n8:16:32:64-S128"
target triple = "x86_64-pc-linux-gnu"

%struct.imap_server_conf = type { ptr, ptr, i32, ptr, ptr, ptr, i32, i32, i32, ptr }
%struct.config_context = type { ptr }

@.str.7 = private unnamed_addr constant [15 x i8] c"imap.sslverify\00", align 1
@.str.8 = private unnamed_addr constant [22 x i8] c"imap.preformattedhtml\00", align 1
@.str.9 = private unnamed_addr constant [12 x i8] c"imap.folder\00", align 1
@.str.10 = private unnamed_addr constant [10 x i8] c"imap.user\00", align 1
@.str.11 = private unnamed_addr constant [10 x i8] c"imap.pass\00", align 1
@.str.12 = private unnamed_addr constant [12 x i8] c"imap.tunnel\00", align 1
@.str.13 = private unnamed_addr constant [16 x i8] c"imap.authmethod\00", align 1
@.str.14 = private unnamed_addr constant [10 x i8] c"imap.port\00", align 1
@.str.15 = private unnamed_addr constant [10 x i8] c"imap.host\00", align 1
@.str.16 = private unnamed_addr constant [6 x i8] c"imap:\00", align 1
@.str.17 = private unnamed_addr constant [7 x i8] c"imaps:\00", align 1
@.str.18 = private unnamed_addr constant [3 x i8] c"//\00", align 1

; Function Attrs: inlinehint nounwind uwtable
define internal i32 @const_error() #5 {
  ret i32 -1
}

; Function Attrs: nounwind uwtable
define internal i32 @git_imap_config(ptr noundef %0, ptr noundef %1, ptr noundef %2, ptr noundef %3) #0 {
  %5 = alloca i32, align 4
  %6 = alloca ptr, align 8
  %7 = alloca ptr, align 8
  %8 = alloca ptr, align 8
  %9 = alloca ptr, align 8
  %10 = alloca ptr, align 8
  %11 = alloca i32, align 4
  store ptr %0, ptr %6, align 8, !tbaa !29
  store ptr %1, ptr %7, align 8, !tbaa !29
  store ptr %2, ptr %8, align 8, !tbaa !30
  store ptr %3, ptr %9, align 8, !tbaa !26
  call void @llvm.lifetime.start.p0(i64 8, ptr %10) #11
  %12 = load ptr, ptr %9, align 8, !tbaa !26
  store ptr %12, ptr %10, align 8, !tbaa !32
  %13 = load ptr, ptr %6, align 8, !tbaa !29
  %14 = call i32 @strcmp(ptr noundef @.str.7, ptr noundef %13) #13
  %15 = icmp ne i32 %14, 0
  br i1 %15, label %22, label %16

16:                                               ; preds = %4
  %17 = load ptr, ptr %6, align 8, !tbaa !29
  %18 = load ptr, ptr %7, align 8, !tbaa !29
  %19 = call i32 @git_config_bool(ptr noundef %17, ptr noundef %18)
  %20 = load ptr, ptr %10, align 8, !tbaa !32
  %21 = getelementptr inbounds nuw %struct.imap_server_conf, ptr %20, i32 0, i32 7
  store i32 %19, ptr %21, align 4, !tbaa !34
  br label %190

22:                                               ; preds = %4
  %23 = load ptr, ptr %6, align 8, !tbaa !29
  %24 = call i32 @strcmp(ptr noundef @.str.8, ptr noundef %23) #13
  %25 = icmp ne i32 %24, 0
  br i1 %25, label %32, label %26

26:                                               ; preds = %22
  %27 = load ptr, ptr %6, align 8, !tbaa !29
  %28 = load ptr, ptr %7, align 8, !tbaa !29
  %29 = call i32 @git_config_bool(ptr noundef %27, ptr noundef %28)
  %30 = load ptr, ptr %10, align 8, !tbaa !32
  %31 = getelementptr inbounds nuw %struct.imap_server_conf, ptr %30, i32 0, i32 8
  store i32 %29, ptr %31, align 8, !tbaa !35
  br label %189

32:                                               ; preds = %22
  %33 = load ptr, ptr %6, align 8, !tbaa !29
  %34 = call i32 @strcmp(ptr noundef @.str.9, ptr noundef %33) #13
  %35 = icmp ne i32 %34, 0
  br i1 %35, label %50, label %36

36:                                               ; preds = %32
  br label %37

37:                                               ; preds = %36
  %38 = load ptr, ptr %10, align 8, !tbaa !32
  %39 = getelementptr inbounds nuw %struct.imap_server_conf, ptr %38, i32 0, i32 3
  %40 = load ptr, ptr %39, align 8, !tbaa !15
  call void @free(ptr noundef %40) #11
  %41 = load ptr, ptr %10, align 8, !tbaa !32
  %42 = getelementptr inbounds nuw %struct.imap_server_conf, ptr %41, i32 0, i32 3
  store ptr null, ptr %42, align 8, !tbaa !15
  br label %43

43:                                               ; preds = %37
  br label %44

44:                                               ; preds = %43
  %45 = load ptr, ptr %10, align 8, !tbaa !32
  %46 = getelementptr inbounds nuw %struct.imap_server_conf, ptr %45, i32 0, i32 3
  %47 = load ptr, ptr %6, align 8, !tbaa !29
  %48 = load ptr, ptr %7, align 8, !tbaa !29
  %49 = call i32 @git_config_string(ptr noundef %46, ptr noundef %47, ptr noundef %48)
  store i32 %49, ptr %5, align 4
  store i32 1, ptr %11, align 4
  br label %191

50:                                               ; preds = %32
  %51 = load ptr, ptr %6, align 8, !tbaa !29
  %52 = call i32 @strcmp(ptr noundef @.str.10, ptr noundef %51) #13
  %53 = icmp ne i32 %52, 0
  br i1 %53, label %68, label %54

54:                                               ; preds = %50
  br label %55

55:                                               ; preds = %54
  %56 = load ptr, ptr %10, align 8, !tbaa !32
  %57 = getelementptr inbounds nuw %struct.imap_server_conf, ptr %56, i32 0, i32 3
  %58 = load ptr, ptr %57, align 8, !tbaa !15
  call void @free(ptr noundef %58) #11
  %59 = load ptr, ptr %10, align 8, !tbaa !32
  %60 = getelementptr inbounds nuw %struct.imap_server_conf, ptr %59, i32 0, i32 3
  store ptr null, ptr %60, align 8, !tbaa !15
  br label %61

61:                                               ; preds = %55
  br label %62

62:                                               ; preds = %61
  %63 = load ptr, ptr %10, align 8, !tbaa !32
  %64 = getelementptr inbounds nuw %struct.imap_server_conf, ptr %63, i32 0, i32 4
  %65 = load ptr, ptr %6, align 8, !tbaa !29
  %66 = load ptr, ptr %7, align 8, !tbaa !29
  %67 = call i32 @git_config_string(ptr noundef %64, ptr noundef %65, ptr noundef %66)
  store i32 %67, ptr %5, align 4
  store i32 1, ptr %11, align 4
  br label %191

68:                                               ; preds = %50
  %69 = load ptr, ptr %6, align 8, !tbaa !29
  %70 = call i32 @strcmp(ptr noundef @.str.11, ptr noundef %69) #13
  %71 = icmp ne i32 %70, 0
  br i1 %71, label %86, label %72

72:                                               ; preds = %68
  br label %73

73:                                               ; preds = %72
  %74 = load ptr, ptr %10, align 8, !tbaa !32
  %75 = getelementptr inbounds nuw %struct.imap_server_conf, ptr %74, i32 0, i32 3
  %76 = load ptr, ptr %75, align 8, !tbaa !15
  call void @free(ptr noundef %76) #11
  %77 = load ptr, ptr %10, align 8, !tbaa !32
  %78 = getelementptr inbounds nuw %struct.imap_server_conf, ptr %77, i32 0, i32 3
  store ptr null, ptr %78, align 8, !tbaa !15
  br label %79

79:                                               ; preds = %73
  br label %80

80:                                               ; preds = %79
  %81 = load ptr, ptr %10, align 8, !tbaa !32
  %82 = getelementptr inbounds nuw %struct.imap_server_conf, ptr %81, i32 0, i32 5
  %83 = load ptr, ptr %6, align 8, !tbaa !29
  %84 = load ptr, ptr %7, align 8, !tbaa !29
  %85 = call i32 @git_config_string(ptr noundef %82, ptr noundef %83, ptr noundef %84)
  store i32 %85, ptr %5, align 4
  store i32 1, ptr %11, align 4
  br label %191

86:                                               ; preds = %68
  %87 = load ptr, ptr %6, align 8, !tbaa !29
  %88 = call i32 @strcmp(ptr noundef @.str.12, ptr noundef %87) #13
  %89 = icmp ne i32 %88, 0
  br i1 %89, label %104, label %90

90:                                               ; preds = %86
  br label %91

91:                                               ; preds = %90
  %92 = load ptr, ptr %10, align 8, !tbaa !32
  %93 = getelementptr inbounds nuw %struct.imap_server_conf, ptr %92, i32 0, i32 3
  %94 = load ptr, ptr %93, align 8, !tbaa !15
  call void @free(ptr noundef %94) #11
  %95 = load ptr, ptr %10, align 8, !tbaa !32
  %96 = getelementptr inbounds nuw %struct.imap_server_conf, ptr %95, i32 0, i32 3
  store ptr null, ptr %96, align 8, !tbaa !15
  br label %97

97:                                               ; preds = %91
  br label %98

98:                                               ; preds = %97
  %99 = load ptr, ptr %10, align 8, !tbaa !32
  %100 = getelementptr inbounds nuw %struct.imap_server_conf, ptr %99, i32 0, i32 0
  %101 = load ptr, ptr %6, align 8, !tbaa !29
  %102 = load ptr, ptr %7, align 8, !tbaa !29
  %103 = call i32 @git_config_string(ptr noundef %100, ptr noundef %101, ptr noundef %102)
  store i32 %103, ptr %5, align 4
  store i32 1, ptr %11, align 4
  br label %191

104:                                              ; preds = %86
  %105 = load ptr, ptr %6, align 8, !tbaa !29
  %106 = call i32 @strcmp(ptr noundef @.str.13, ptr noundef %105) #13
  %107 = icmp ne i32 %106, 0
  br i1 %107, label %122, label %108

108:                                              ; preds = %104
  br label %109

109:                                              ; preds = %108
  %110 = load ptr, ptr %10, align 8, !tbaa !32
  %111 = getelementptr inbounds nuw %struct.imap_server_conf, ptr %110, i32 0, i32 3
  %112 = load ptr, ptr %111, align 8, !tbaa !15
  call void @free(ptr noundef %112) #11
  %113 = load ptr, ptr %10, align 8, !tbaa !32
  %114 = getelementptr inbounds nuw %struct.imap_server_conf, ptr %113, i32 0, i32 3
  store ptr null, ptr %114, align 8, !tbaa !15
  br label %115

115:                                              ; preds = %109
  br label %116

116:                                              ; preds = %115
  %117 = load ptr, ptr %10, align 8, !tbaa !32
  %118 = getelementptr inbounds nuw %struct.imap_server_conf, ptr %117, i32 0, i32 9
  %119 = load ptr, ptr %6, align 8, !tbaa !29
  %120 = load ptr, ptr %7, align 8, !tbaa !29
  %121 = call i32 @git_config_string(ptr noundef %118, ptr noundef %119, ptr noundef %120)
  store i32 %121, ptr %5, align 4
  store i32 1, ptr %11, align 4
  br label %191

122:                                              ; preds = %104
  %123 = load ptr, ptr %6, align 8, !tbaa !29
  %124 = call i32 @strcmp(ptr noundef @.str.14, ptr noundef %123) #13
  %125 = icmp ne i32 %124, 0
  br i1 %125, label %135, label %126

126:                                              ; preds = %122
  %127 = load ptr, ptr %6, align 8, !tbaa !29
  %128 = load ptr, ptr %7, align 8, !tbaa !29
  %129 = load ptr, ptr %8, align 8, !tbaa !30
  %130 = getelementptr inbounds nuw %struct.config_context, ptr %129, i32 0, i32 0
  %131 = load ptr, ptr %130, align 8, !tbaa !36
  %132 = call i32 @git_config_int(ptr noundef %127, ptr noundef %128, ptr noundef %131)
  %133 = load ptr, ptr %10, align 8, !tbaa !32
  %134 = getelementptr inbounds nuw %struct.imap_server_conf, ptr %133, i32 0, i32 2
  store i32 %132, ptr %134, align 8, !tbaa !11
  br label %183

135:                                              ; preds = %122
  %136 = load ptr, ptr %6, align 8, !tbaa !29
  %137 = call i32 @strcmp(ptr noundef @.str.15, ptr noundef %136) #13
  %138 = icmp ne i32 %137, 0
  br i1 %138, label %176, label %139

139:                                              ; preds = %135
  %140 = load ptr, ptr %7, align 8, !tbaa !29
  %141 = icmp ne ptr %140, null
  br i1 %141, label %146, label %142

142:                                              ; preds = %139
  %143 = load ptr, ptr %6, align 8, !tbaa !29
  %144 = call i32 @config_error_nonbool(ptr noundef %143)
  %145 = call i32 @const_error()
  store i32 %145, ptr %5, align 4
  store i32 1, ptr %11, align 4
  br label %191

146:                                              ; preds = %139
  %147 = load ptr, ptr %7, align 8, !tbaa !29
  %148 = call i32 @starts_with(ptr noundef %147, ptr noundef @.str.16)
  %149 = icmp ne i32 %148, 0
  br i1 %149, label %150, label %153

150:                                              ; preds = %146
  %151 = load ptr, ptr %7, align 8, !tbaa !29
  %152 = getelementptr inbounds i8, ptr %151, i64 5
  store ptr %152, ptr %7, align 8, !tbaa !29
  br label %163

153:                                              ; preds = %146
  %154 = load ptr, ptr %7, align 8, !tbaa !29
  %155 = call i32 @starts_with(ptr noundef %154, ptr noundef @.str.17)
  %156 = icmp ne i32 %155, 0
  br i1 %156, label %157, label %162

157:                                              ; preds = %153
  %158 = load ptr, ptr %7, align 8, !tbaa !29
  %159 = getelementptr inbounds i8, ptr %158, i64 6
  store ptr %159, ptr %7, align 8, !tbaa !29
  %160 = load ptr, ptr %10, align 8, !tbaa !32
  %161 = getelementptr inbounds nuw %struct.imap_server_conf, ptr %160, i32 0, i32 6
  store i32 1, ptr %161, align 8, !tbaa !14
  br label %162

162:                                              ; preds = %157, %153
  br label %163

163:                                              ; preds = %162, %150
  %164 = load ptr, ptr %7, align 8, !tbaa !29
  %165 = call i32 @starts_with(ptr noundef %164, ptr noundef @.str.18)
  %166 = icmp ne i32 %165, 0
  br i1 %166, label %167, label %170

167:                                              ; preds = %163
  %168 = load ptr, ptr %7, align 8, !tbaa !29
  %169 = getelementptr inbounds i8, ptr %168, i64 2
  store ptr %169, ptr %7, align 8, !tbaa !29
  br label %170

170:                                              ; preds = %167, %163
  %171 = load ptr, ptr %7, align 8, !tbaa !29
  %172 = call ptr @xstrdup(ptr noundef %171)
  %173 = load ptr, ptr %10, align 8, !tbaa !32
  %174 = getelementptr inbounds nuw %struct.imap_server_conf, ptr %173, i32 0, i32 1
  store ptr %172, ptr %174, align 8, !tbaa !18
  br label %175

175:                                              ; preds = %170
  br label %182

176:                                              ; preds = %135
  %177 = load ptr, ptr %6, align 8, !tbaa !29
  %178 = load ptr, ptr %7, align 8, !tbaa !29
  %179 = load ptr, ptr %8, align 8, !tbaa !30
  %180 = load ptr, ptr %9, align 8, !tbaa !26
  %181 = call i32 @git_default_config(ptr noundef %177, ptr noundef %178, ptr noundef %179, ptr noundef %180)
  store i32 %181, ptr %5, align 4
  store i32 1, ptr %11, align 4
  br label %191

182:                                              ; preds = %175
  br label %183

183:                                              ; preds = %182, %126
  br label %184

184:                                              ; preds = %183
  br label %185

185:                                              ; preds = %184
  br label %186

186:                                              ; preds = %185
  br label %187

187:                                              ; preds = %186
  br label %188

188:                                              ; preds = %187
  br label %189

189:                                              ; preds = %188, %26
  br label %190

190:                                              ; preds = %189, %16
  store i32 0, ptr %5, align 4
  store i32 1, ptr %11, align 4
  br label %191

191:                                              ; preds = %190, %176, %142, %116, %98, %80, %62, %44
  call void @llvm.lifetime.end.p0(i64 8, ptr %10) #11
  %192 = load i32, ptr %5, align 4
  ret i32 %192
}