; Function Attrs: nounwind uwtable
define internal i32 @git_imap_config(ptr noundef %0, ptr noundef %1, ptr noundef %2, ptr noundef %3) #0 {
  %5 = tail call i32 @strcmp(ptr noundef nonnull dereferenceable(15) @.str.7, ptr noundef nonnull dereferenceable(1) %0) #25
  %.not = icmp eq i32 %5, 0
  br i1 %.not, label %6, label %9

6:                                                ; preds = %4
  %7 = tail call i32 @git_config_bool(ptr noundef nonnull %0, ptr noundef %1) #22
  %8 = getelementptr inbounds nuw i8, ptr %3, i64 52
  store i32 %7, ptr %8, align 4, !tbaa !29
  br label %73

9:                                                ; preds = %4
  %10 = tail call i32 @strcmp(ptr noundef nonnull dereferenceable(22) @.str.8, ptr noundef nonnull dereferenceable(1) %0) #25
  %.not62 = icmp eq i32 %10, 0
  br i1 %.not62, label %11, label %14

11:                                               ; preds = %9
  %12 = tail call i32 @git_config_bool(ptr noundef nonnull %0, ptr noundef %1) #22
  %13 = getelementptr inbounds nuw i8, ptr %3, i64 56
  store i32 %12, ptr %13, align 8, !tbaa !32
  br label %73

14:                                               ; preds = %9
  %15 = tail call i32 @strcmp(ptr noundef nonnull dereferenceable(12) @.str.9, ptr noundef nonnull dereferenceable(1) %0) #25
  %.not63 = icmp eq i32 %15, 0
  br i1 %.not63, label %16, label %20

16:                                               ; preds = %14
  %17 = getelementptr inbounds nuw i8, ptr %3, i64 24
  %18 = load ptr, ptr %17, align 8, !tbaa !14
  tail call void @free(ptr noundef %18) #22
  store ptr null, ptr %17, align 8, !tbaa !14
  %19 = tail call i32 @git_config_string(ptr noundef nonnull %17, ptr noundef nonnull %0, ptr noundef %1) #22
  br label %73

20:                                               ; preds = %14
  %21 = tail call i32 @strcmp(ptr noundef nonnull dereferenceable(10) @.str.10, ptr noundef nonnull dereferenceable(1) %0) #25
  %.not64 = icmp eq i32 %21, 0
  br i1 %.not64, label %22, label %27

22:                                               ; preds = %20
  %23 = getelementptr inbounds nuw i8, ptr %3, i64 24
  %24 = load ptr, ptr %23, align 8, !tbaa !14
  tail call void @free(ptr noundef %24) #22
  store ptr null, ptr %23, align 8, !tbaa !14
  %25 = getelementptr inbounds nuw i8, ptr %3, i64 32
  %26 = tail call i32 @git_config_string(ptr noundef nonnull %25, ptr noundef nonnull %0, ptr noundef %1) #22
  br label %73

27:                                               ; preds = %20
  %28 = tail call i32 @strcmp(ptr noundef nonnull dereferenceable(10) @.str.11, ptr noundef nonnull dereferenceable(1) %0) #25
  %.not65 = icmp eq i32 %28, 0
  br i1 %.not65, label %29, label %34

29:                                               ; preds = %27
  %30 = getelementptr inbounds nuw i8, ptr %3, i64 24
  %31 = load ptr, ptr %30, align 8, !tbaa !14
  tail call void @free(ptr noundef %31) #22
  store ptr null, ptr %30, align 8, !tbaa !14
  %32 = getelementptr inbounds nuw i8, ptr %3, i64 40
  %33 = tail call i32 @git_config_string(ptr noundef nonnull %32, ptr noundef nonnull %0, ptr noundef %1) #22
  br label %73

34:                                               ; preds = %27
  %35 = tail call i32 @strcmp(ptr noundef nonnull dereferenceable(12) @.str.12, ptr noundef nonnull dereferenceable(1) %0) #25
  %.not66 = icmp eq i32 %35, 0
  br i1 %.not66, label %36, label %40

36:                                               ; preds = %34
  %37 = getelementptr inbounds nuw i8, ptr %3, i64 24
  %38 = load ptr, ptr %37, align 8, !tbaa !14
  tail call void @free(ptr noundef %38) #22
  store ptr null, ptr %37, align 8, !tbaa !14
  %39 = tail call i32 @git_config_string(ptr noundef %3, ptr noundef nonnull %0, ptr noundef %1) #22
  br label %73

40:                                               ; preds = %34
  %41 = tail call i32 @strcmp(ptr noundef nonnull dereferenceable(16) @.str.13, ptr noundef nonnull dereferenceable(1) %0) #25
  %.not67 = icmp eq i32 %41, 0
  br i1 %.not67, label %42, label %47

42:                                               ; preds = %40
  %43 = getelementptr inbounds nuw i8, ptr %3, i64 24
  %44 = load ptr, ptr %43, align 8, !tbaa !14
  tail call void @free(ptr noundef %44) #22
  store ptr null, ptr %43, align 8, !tbaa !14
  %45 = getelementptr inbounds nuw i8, ptr %3, i64 64
  %46 = tail call i32 @git_config_string(ptr noundef nonnull %45, ptr noundef nonnull %0, ptr noundef %1) #22
  br label %73

47:                                               ; preds = %40
  %48 = tail call i32 @strcmp(ptr noundef nonnull dereferenceable(10) @.str.14, ptr noundef nonnull dereferenceable(1) %0) #25
  %.not68 = icmp eq i32 %48, 0
  br i1 %.not68, label %49, label %53

49:                                               ; preds = %47
  %50 = load ptr, ptr %2, align 8, !tbaa !43
  %51 = tail call i32 @git_config_int(ptr noundef nonnull %0, ptr noundef %1, ptr noundef %50) #22
  %52 = getelementptr inbounds nuw i8, ptr %3, i64 16
  store i32 %51, ptr %52, align 8, !tbaa !9
  br label %73

53:                                               ; preds = %47
  %54 = tail call i32 @strcmp(ptr noundef nonnull dereferenceable(10) @.str.15, ptr noundef nonnull dereferenceable(1) %0) #25
  %.not69 = icmp eq i32 %54, 0
  br i1 %.not69, label %55, label %71

55:                                               ; preds = %53
  %.not70 = icmp eq ptr %1, null
  br i1 %.not70, label %56, label %58

56:                                               ; preds = %55
  %57 = tail call i32 @config_error_nonbool(ptr noundef nonnull %0) #22
  br label %73

58:                                               ; preds = %55
  %59 = tail call i32 @starts_with(ptr noundef nonnull %1, ptr noundef nonnull @.str.16) #22
  %.not71 = icmp eq i32 %59, 0
  br i1 %.not71, label %62, label %60

60:                                               ; preds = %58
  %61 = getelementptr inbounds nuw i8, ptr %1, i64 5
  br label %67

62:                                               ; preds = %58
  %63 = tail call i32 @starts_with(ptr noundef nonnull %1, ptr noundef nonnull @.str.17) #22
  %.not72 = icmp eq i32 %63, 0
  br i1 %.not72, label %67, label %64

64:                                               ; preds = %62
  %65 = getelementptr inbounds nuw i8, ptr %1, i64 6
  %66 = getelementptr inbounds nuw i8, ptr %3, i64 48
  store i32 1, ptr %66, align 8, !tbaa !13
  br label %67

67:                                               ; preds = %62, %64, %60
  %.060 = phi ptr [ %61, %60 ], [ %65, %64 ], [ %1, %62 ]
  %68 = tail call i32 @starts_with(ptr noundef nonnull %.060, ptr noundef nonnull @.str.18) #22
  %.not73 = icmp eq i32 %68, 0
  %spec.select.idx = select i1 %.not73, i64 0, i64 2
  %spec.select = getelementptr inbounds nuw i8, ptr %.060, i64 %spec.select.idx
  %69 = tail call ptr @xstrdup(ptr noundef nonnull %spec.select) #22
  %70 = getelementptr inbounds nuw i8, ptr %3, i64 8
  store ptr %69, ptr %70, align 8, !tbaa !17
  br label %73

71:                                               ; preds = %53
  %72 = tail call i32 @git_default_config(ptr noundef nonnull %0, ptr noundef %1, ptr noundef %2, ptr noundef %3) #22
  br label %73

73:                                               ; preds = %6, %67, %49, %11, %71, %56, %42, %36, %29, %22, %16
  %.0 = phi i32 [ %72, %71 ], [ -1, %56 ], [ %46, %42 ], [ %39, %36 ], [ %33, %29 ], [ %26, %22 ], [ %19, %16 ], [ 0, %11 ], [ 0, %49 ], [ 0, %67 ], [ 0, %6 ]
  ret i32 %.0
}